target datalayout = "e-m:e-p270:32:32-p271:32:32-p272:64:64-i64:64-i128:128-f80:128-n8:16:32:64-S128"
target triple = "x86_64-unknown-linux-gnu"

; Function Attrs: nounwind sspstrong uwtable
define internal void @pci_vga_ioport_write(ptr noundef %ptr, i64 noundef %addr, i64 noundef %val, i32 noundef %size) #0 {
entry:
  %ptr.addr = alloca ptr, align 8
  %addr.addr = alloca i64, align 8
  %val.addr = alloca i64, align 8
  %size.addr = alloca i32, align 4
  %s = alloca ptr, align 8
  store ptr %ptr, ptr %ptr.addr, align 8
  store i64 %addr, ptr %addr.addr, align 8
  store i64 %val, ptr %val.addr, align 8
  store i32 %size, ptr %size.addr, align 4
  %0 = load ptr, ptr %ptr.addr, align 8
  store ptr %0, ptr %s, align 8
  %1 = load i32, ptr %size.addr, align 4
  switch i32 %1, label %sw.epilog [
    i32 1, label %sw.bb
    i32 2, label %sw.bb2
  ]

sw.bb:                                            ; preds = %entry
  %2 = load ptr, ptr %s, align 8
  %3 = load i64, ptr %addr.addr, align 8
  %add = add i64 %3, 960
  %conv = trunc i64 %add to i32
  %4 = load i64, ptr %val.addr, align 8
  %conv1 = trunc i64 %4 to i32
  call void @vga_ioport_write(ptr noundef %2, i32 noundef %conv, i32 noundef %conv1)
  br label %sw.epilog

sw.bb2:                                           ; preds = %entry
  %5 = load ptr, ptr %s, align 8
  %6 = load i64, ptr %addr.addr, align 8
  %add3 = add i64 %6, 960
  %conv4 = trunc i64 %add3 to i32
  %7 = load i64, ptr %val.addr, align 8
  %and = and i64 %7, 255
  %conv5 = trunc i64 %and to i32
  call void @vga_ioport_write(ptr noundef %5, i32 noundef %conv4, i32 noundef %conv5)
  %8 = load ptr, ptr %s, align 8
  %9 = load i64, ptr %addr.addr, align 8
  %add6 = add i64 %9, 961
  %conv7 = trunc i64 %add6 to i32
  %10 = load i64, ptr %val.addr, align 8
  %shr = lshr i64 %10, 8
  %and8 = and i64 %shr, 255
  %conv9 = trunc i64 %and8 to i32
  call void @vga_ioport_write(ptr noundef %8, i32 noundef %conv7, i32 noundef %conv9)
  br label %sw.epilog

sw.epilog:                                        ; preds = %sw.bb2, %sw.bb, %entry
  ret void
}