; Function Attrs: nounwind sspstrong uwtable
define internal void @pci_vga_ioport_write(ptr noundef %ptr, i64 noundef %addr, i64 noundef %val, i32 noundef %size) #0 {
entry:
  switch i32 %size, label %sw.epilog [
    i32 1, label %sw.bb
    i32 2, label %sw.bb2
  ]

sw.bb:                                            ; preds = %entry
  %0 = trunc i64 %addr to i32
  %conv = add i32 %0, 960
  %conv1 = trunc i64 %val to i32
  tail call void @vga_ioport_write(ptr noundef %ptr, i32 noundef %conv, i32 noundef %conv1) #4
  br label %sw.epilog

sw.bb2:                                           ; preds = %entry
  %1 = trunc i64 %addr to i32
  %conv4 = add i32 %1, 960
  %2 = trunc i64 %val to i32
  %conv5 = and i32 %2, 255
  tail call void @vga_ioport_write(ptr noundef %ptr, i32 noundef %conv4, i32 noundef %conv5) #4
  %conv7 = add i32 %1, 961
  %3 = lshr i32 %2, 8
  %conv9 = and i32 %3, 255
  tail call void @vga_ioport_write(ptr noundef %ptr, i32 noundef %conv7, i32 noundef %conv9) #4
  br label %sw.epilog

sw.epilog:                                        ; preds = %sw.bb2, %sw.bb, %entry
  ret void
}